; Function Attrs: nounwind uwtable
define internal fastcc noundef zeroext i1 @RelationIsVisibleExt(i32 noundef %0, ptr noundef writeonly captures(address_is_null) %1) unnamed_addr #0 {
  %3 = zext i32 %0 to i64
  %4 = tail call ptr @SearchSysCache1(i32 noundef 57, i64 noundef %3) #19
  %.not = icmp eq ptr %4, null
  br i1 %.not, label %5, label %10

5:                                                ; preds = %2
  %.not30 = icmp eq ptr %1, null
  br i1 %.not30, label %7, label %6

6:                                                ; preds = %5
  store i8 1, ptr %1, align 1
  br label %38

7:                                                ; preds = %5
  %8 = tail call zeroext i1 @errstart_cold(i32 noundef 21, ptr noundef null) #21
  tail call void @llvm.assume(i1 %8)
  %9 = tail call i32 (ptr, ...) @errmsg_internal(ptr noundef nonnull @.str.30, i32 noundef %0) #19
  tail call void @errfinish(ptr noundef nonnull @.str.1, i32 noundef 940, ptr noundef nonnull @__func__.RelationIsVisibleExt) #19
  unreachable

10:                                               ; preds = %2
  %11 = getelementptr i8, ptr %4, i64 16
  %.val = load ptr, ptr %11, align 8
  %12 = getelementptr inbounds nuw i8, ptr %.val, i64 22
  %13 = load i8, ptr %12, align 2
  %14 = zext i8 %13 to i64
  %15 = getelementptr inbounds nuw i8, ptr %.val, i64 %14
  tail call fastcc void @recomputeNamespacePath()
  %16 = getelementptr inbounds nuw i8, ptr %15, i64 68
  %17 = load i32, ptr %16, align 4
  %.not31 = icmp eq i32 %17, 11
  br i1 %.not31, label %21, label %18

18:                                               ; preds = %10
  %19 = load ptr, ptr @activeSearchPath, align 8
  %20 = tail call zeroext i1 @list_member_oid(ptr noundef %19, i32 noundef %17) #19
  br i1 %20, label %21, label %.thread

21:                                               ; preds = %18, %10
  %22 = getelementptr inbounds nuw i8, ptr %15, i64 4
  %23 = load ptr, ptr @activeSearchPath, align 8
  %24 = getelementptr inbounds nuw i8, ptr %23, i64 4
  %25 = getelementptr inbounds nuw i8, ptr %23, i64 16
  %.not32 = icmp eq ptr %23, null
  br i1 %.not32, label %.thread, label %.lr.ph.split

.lr.ph.split:                                     ; preds = %21
  %26 = load i32, ptr %24, align 4
  %27 = icmp sgt i32 %26, 0
  br i1 %27, label %.lr.ph51, label %.thread

28:                                               ; preds = %36
  %indvars.iv.next = add nuw nsw i64 %indvars.iv, 1
  %29 = load i32, ptr %24, align 4
  %30 = sext i32 %29 to i64
  %31 = icmp slt i64 %indvars.iv.next, %30
  br i1 %31, label %.lr.ph51, label %.thread

.lr.ph51:                                         ; preds = %.lr.ph.split, %28
  %indvars.iv = phi i64 [ %indvars.iv.next, %28 ], [ 0, %.lr.ph.split ]
  %32 = load ptr, ptr %25, align 8
  %33 = getelementptr inbounds nuw %union.ListCell, ptr %32, i64 %indvars.iv
  %34 = load i32, ptr %33, align 8
  %35 = icmp eq i32 %34, %17
  br i1 %35, label %.thread, label %36

36:                                               ; preds = %.lr.ph51
  %37 = tail call i32 @get_relname_relid(ptr noundef nonnull %22, i32 noundef %34) #19
  %.not34 = icmp eq i32 %37, 0
  br i1 %.not34, label %28, label %.thread

.thread:                                          ; preds = %.lr.ph51, %28, %36, %21, %.lr.ph.split, %18
  %.022 = phi i1 [ false, %18 ], [ false, %21 ], [ false, %.lr.ph.split ], [ %35, %36 ], [ %35, %28 ], [ %35, %.lr.ph51 ]
  tail call void @ReleaseSysCache(ptr noundef nonnull %4) #19
  br label %38

38:                                               ; preds = %.thread, %6
  %.0 = phi i1 [ %.022, %.thread ], [ false, %6 ]
  ret i1 %.0
}